(lp0
S'120_at'
p1
aS'33222_at'
p2
aS'36159_s_at'
p3
aS'36192_at'
p4
aS'38469_at'
p5
aS'39329_at'
p6
aS'40567_at'
p7
aS'40841_at'
p8
aS'32598_at'
p9
aS'37572_at'
p10
aS'39054_at'
p11
aS'39184_at'
p12
aS'41728_at'
p13
aS'32223_at'
p14
aS'39711_at'
p15
aS'33215_g_at'
p16
aS'36814_at'
p17
aS'36137_at'
p18
aS'34315_at'
p19
aS'32575_at'
p20
aS'35749_at'
p21
a.