(lp0
S'1385_at'
p1
aS'31622_f_at'
p2
aS'32821_at'
p3
aS'33328_at'
p4
aS'33919_at'
p5
aS'34375_at'
p6
aS'34407_at'
p7
aS'35766_at'
p8
aS'36130_f_at'
p9
aS'37032_at'
p10
aS'37157_at'
p11
aS'38637_at'
p12
aS'38722_at'
p13
aS'39081_at'
p14
aS'39182_at'
p15
aS'39409_at'
p16
aS'39594_f_at'
p17
aS'39640_at'
p18
aS'40087_at'
p19
aS'40103_at'
p20
aS'40445_at'
p21
aS'40567_at'
p22
aS'40767_at'
p23
aS'40848_g_at'
p24
aS'41139_at'
p25
aS'41165_g_at'
p26
aS'41176_at'
p27
aS'41177_at'
p28
aS'41209_at'
p29
aS'41402_at'
p30
aS'41423_at'
p31
aS'41424_at'
p32
aS'41454_at'
p33
aS'41504_s_at'
p34
aS'41745_at'
p35
aS'41771_g_at'
p36
aS'41772_at'
p37
aS'41792_at'
p38
aS'41827_f_at'
p39
aS'575_s_at'
p40
aS'657_at'
p41
aS'677_s_at'
p42
aS'700_s_at'
p43
aS'715_s_at'
p44
aS'767_at'
p45
aS'870_f_at'
p46
aS'927_s_at'
p47
aS'973_at'
p48
aS'988_at'
p49
aS'632_at'
p50
aS'179_at'
p51
a.